target datalayout = "e-m:e-p270:32:32-p271:32:32-p272:64:64-i64:64-i128:128-f80:128-n8:16:32:64-S128"
target triple = "x86_64-pc-linux-gnu"

%struct.PageHeaderData = type { %struct.PageXLogRecPtr, i16, i16, i16, i16, i16, i16, i32, [0 x %struct.ItemIdData] }
%struct.PageXLogRecPtr = type { i32, i32 }
%struct.ItemIdData = type { i32 }
%struct.GISTPageOpaqueData = type { %struct.PageXLogRecPtr, i32, i16, i16 }

; Function Attrs: inlinehint nounwind uwtable
define internal void @PageValidateSpecialPointer(ptr noundef %0) #2 {
  %2 = alloca ptr, align 8
  store ptr %0, ptr %2, align 8
  ret void
}

; Function Attrs: nounwind uwtable
define dso_local void @gistinitpage(ptr noundef %0, i32 noundef %1) #0 {
  %3 = alloca ptr, align 8
  %4 = alloca i32, align 4
  %5 = alloca ptr, align 8
  store ptr %0, ptr %3, align 8
  store i32 %1, ptr %4, align 4
  call void @llvm.lifetime.start.p0(i64 8, ptr %5) #8
  %6 = load ptr, ptr %3, align 8
  call void @PageInit(ptr noundef %6, i64 noundef 8192, i64 noundef 16)
  %7 = load ptr, ptr %3, align 8
  call void @PageValidateSpecialPointer(ptr noundef %7)
  %8 = load ptr, ptr %3, align 8
  %9 = load ptr, ptr %3, align 8
  %10 = getelementptr inbounds nuw %struct.PageHeaderData, ptr %9, i32 0, i32 5
  %11 = load i16, ptr %10, align 4
  %12 = zext i16 %11 to i32
  %13 = sext i32 %12 to i64
  %14 = getelementptr inbounds i8, ptr %8, i64 %13
  store ptr %14, ptr %5, align 8
  %15 = load ptr, ptr %5, align 8
  %16 = getelementptr inbounds nuw %struct.GISTPageOpaqueData, ptr %15, i32 0, i32 1
  store i32 -1, ptr %16, align 4
  %17 = load i32, ptr %4, align 4
  %18 = trunc i32 %17 to i16
  %19 = load ptr, ptr %5, align 8
  %20 = getelementptr inbounds nuw %struct.GISTPageOpaqueData, ptr %19, i32 0, i32 2
  store i16 %18, ptr %20, align 4
  %21 = load ptr, ptr %5, align 8
  %22 = getelementptr inbounds nuw %struct.GISTPageOpaqueData, ptr %21, i32 0, i32 3
  store i16 -127, ptr %22, align 2
  call void @llvm.lifetime.end.p0(i64 8, ptr %5) #8
  ret void
}