; Function Attrs: nounwind uwtable
define dso_local void @gistinitpage(ptr noundef %0, i32 noundef %1) local_unnamed_addr #0 {
  tail call void @PageInit(ptr noundef %0, i64 noundef 8192, i64 noundef 16) #11
  %3 = getelementptr inbounds nuw i8, ptr %0, i64 16
  %4 = load i16, ptr %3, align 4
  %5 = zext i16 %4 to i64
  %6 = getelementptr inbounds nuw i8, ptr %0, i64 %5
  %7 = getelementptr inbounds nuw i8, ptr %6, i64 8
  store i32 -1, ptr %7, align 4
  %8 = trunc i32 %1 to i16
  %9 = getelementptr inbounds nuw i8, ptr %6, i64 12
  store i16 %8, ptr %9, align 4
  %10 = getelementptr inbounds nuw i8, ptr %6, i64 14
  store i16 -127, ptr %10, align 2
  ret void
}